; Function Attrs: nounwind uwtable
define internal noundef i32 @cipher_hw_aesni_cbc(ptr noundef %0, ptr noundef %1, ptr noundef %2, i64 noundef %3) #1 {
  %5 = getelementptr inbounds nuw i8, ptr %0, i64 176
  %6 = load ptr, ptr %5, align 8, !tbaa !7
  %7 = getelementptr inbounds nuw i8, ptr %0, i64 32
  %8 = getelementptr inbounds nuw i8, ptr %0, i64 108
  %9 = load i8, ptr %8, align 4
  %10 = lshr i8 %9, 1
  %11 = and i8 %10, 1
  %12 = zext nneg i8 %11 to i32
  tail call void @aesni_cbc_encrypt(ptr noundef %2, ptr noundef %1, i64 noundef %3, ptr noundef %6, ptr noundef nonnull %7, i32 noundef %12) #5
  ret i32 1
}